; Function Attrs: mustprogress uwtable
define void @zmq_threadclose(ptr noundef nonnull %0) local_unnamed_addr #0 personality ptr @__gxx_personality_v0 {
  tail call void @_ZN3zmq8thread_t4stopEv(ptr noundef nonnull align 8 dereferenceable(104) %0)
  %2 = getelementptr inbounds nuw i8, ptr %0, i64 56
  %3 = getelementptr inbounds nuw i8, ptr %0, i64 72
  %4 = load ptr, ptr %3, align 8, !tbaa !27
  invoke void @_ZNSt8_Rb_treeIiiSt9_IdentityIiESt4lessIiESaIiEE8_M_eraseEPSt13_Rb_tree_nodeIiE(ptr noundef nonnull align 8 dereferenceable(48) %2, ptr noundef %4)
          to label %_ZN3zmq8thread_tD2Ev.exit unwind label %5

5:                                                ; preds = %1
  %6 = landingpad { ptr, i32 }
          catch ptr null
  %7 = extractvalue { ptr, i32 } %6, 0
  tail call void @__clang_call_terminate(ptr %7) #22
  unreachable

_ZN3zmq8thread_tD2Ev.exit:                        ; preds = %1
  tail call void @_ZdlPv(ptr noundef nonnull %0) #23
  ret void
}